target datalayout = "e-m:e-p270:32:32-p271:32:32-p272:64:64-i64:64-i128:128-f80:128-n8:16:32:64-S128"
target triple = "x86_64-pc-linux-gnu"

%struct.Lpk_Res_t_ = type { i32, i32, i32, [4 x i8], i32, i32, i32, i32, i32, i32 }
%struct.Lpk_Fun_t_ = type { ptr, i32, i32, [32 x i32], i32, [16 x i32], [16 x i8], [0 x i32] }
%struct.Vec_Int_t_ = type { i32, i32, ptr }

@.str = private unnamed_addr constant [45 x i8] c"area = %d limit = %d  delay = %d limit = %d\0A\00", align 1
@.str.1 = private unnamed_addr constant [17 x i8] c"Found bound set \00", align 1
@.str.2 = private unnamed_addr constant [2 x i8] c"\0A\00", align 1
@.str.3 = private unnamed_addr constant [25 x i8] c"Did not find boundsets.\0A\00", align 1
@.str.4 = private unnamed_addr constant [3 x i8] c"%c\00", align 1
@.str.5 = private unnamed_addr constant [2 x i8] c" \00", align 1

; Function Attrs: inlinehint nounwind uwtable
define internal i32 @Lpk_LutNumLuts(i32 noundef %0, i32 noundef %1) #2 {
  %3 = alloca i32, align 4
  %4 = alloca i32, align 4
  store i32 %0, ptr %3, align 4, !tbaa !10
  store i32 %1, ptr %4, align 4, !tbaa !10
  %5 = load i32, ptr %3, align 4, !tbaa !10
  %6 = sub nsw i32 %5, 1
  %7 = load i32, ptr %4, align 4, !tbaa !10
  %8 = sub nsw i32 %7, 1
  %9 = sdiv i32 %6, %8
  %10 = load i32, ptr %3, align 4, !tbaa !10
  %11 = sub nsw i32 %10, 1
  %12 = load i32, ptr %4, align 4, !tbaa !10
  %13 = sub nsw i32 %12, 1
  %14 = srem i32 %11, %13
  %15 = icmp sgt i32 %14, 0
  %16 = zext i1 %15 to i32
  %17 = add nsw i32 %9, %16
  ret i32 %17
}

; Function Attrs: inlinehint nounwind uwtable
define internal i32 @Kit_WordCountOnes(i32 noundef %0) #2 {
  %2 = alloca i32, align 4
  store i32 %0, ptr %2, align 4, !tbaa !10
  %3 = load i32, ptr %2, align 4, !tbaa !10
  %4 = and i32 %3, 1431655765
  %5 = load i32, ptr %2, align 4, !tbaa !10
  %6 = lshr i32 %5, 1
  %7 = and i32 %6, 1431655765
  %8 = add i32 %4, %7
  store i32 %8, ptr %2, align 4, !tbaa !10
  %9 = load i32, ptr %2, align 4, !tbaa !10
  %10 = and i32 %9, 858993459
  %11 = load i32, ptr %2, align 4, !tbaa !10
  %12 = lshr i32 %11, 2
  %13 = and i32 %12, 858993459
  %14 = add i32 %10, %13
  store i32 %14, ptr %2, align 4, !tbaa !10
  %15 = load i32, ptr %2, align 4, !tbaa !10
  %16 = and i32 %15, 252645135
  %17 = load i32, ptr %2, align 4, !tbaa !10
  %18 = lshr i32 %17, 4
  %19 = and i32 %18, 252645135
  %20 = add i32 %16, %19
  store i32 %20, ptr %2, align 4, !tbaa !10
  %21 = load i32, ptr %2, align 4, !tbaa !10
  %22 = and i32 %21, 16711935
  %23 = load i32, ptr %2, align 4, !tbaa !10
  %24 = lshr i32 %23, 8
  %25 = and i32 %24, 16711935
  %26 = add i32 %22, %25
  store i32 %26, ptr %2, align 4, !tbaa !10
  %27 = load i32, ptr %2, align 4, !tbaa !10
  %28 = and i32 %27, 65535
  %29 = load i32, ptr %2, align 4, !tbaa !10
  %30 = lshr i32 %29, 16
  %31 = add i32 %28, %30
  ret i32 %31
}

; Function Attrs: nounwind uwtable
define internal void @Lpk_PrintSetOne(i32 noundef %0) #0 {
  %2 = alloca i32, align 4
  %3 = alloca i32, align 4
  store i32 %0, ptr %2, align 4, !tbaa !10
  call void @llvm.lifetime.start.p0(i64 4, ptr %3) #8
  store i32 0, ptr %3, align 4, !tbaa !10
  br label %4

4:                                                ; preds = %18, %1
  %5 = load i32, ptr %3, align 4, !tbaa !10
  %6 = icmp ult i32 %5, 16
  br i1 %6, label %7, label %21

7:                                                ; preds = %4
  %8 = load i32, ptr %2, align 4, !tbaa !10
  %9 = load i32, ptr %3, align 4, !tbaa !10
  %10 = shl i32 1, %9
  %11 = and i32 %8, %10
  %12 = icmp ne i32 %11, 0
  br i1 %12, label %13, label %17

13:                                               ; preds = %7
  %14 = load i32, ptr %3, align 4, !tbaa !10
  %15 = add i32 97, %14
  %16 = call i32 (ptr, ...) @printf(ptr noundef @.str.4, i32 noundef %15)
  br label %17

17:                                               ; preds = %13, %7
  br label %18

18:                                               ; preds = %17
  %19 = load i32, ptr %3, align 4, !tbaa !10
  %20 = add i32 %19, 1
  store i32 %20, ptr %3, align 4, !tbaa !10
  br label %4, !llvm.loop !56

21:                                               ; preds = %4
  %22 = call i32 (ptr, ...) @printf(ptr noundef @.str.5)
  call void @llvm.lifetime.end.p0(i64 4, ptr %3) #8
  ret void
}

; Function Attrs: inlinehint nounwind uwtable
define internal i32 @Vec_IntEntry(ptr noundef %0, i32 noundef %1) #2 {
  %3 = alloca ptr, align 8
  %4 = alloca i32, align 4
  store ptr %0, ptr %3, align 8, !tbaa !23
  store i32 %1, ptr %4, align 4, !tbaa !10
  %5 = load ptr, ptr %3, align 8, !tbaa !23
  %6 = getelementptr inbounds nuw %struct.Vec_Int_t_, ptr %5, i32 0, i32 2
  %7 = load ptr, ptr %6, align 8, !tbaa !40
  %8 = load i32, ptr %4, align 4, !tbaa !10
  %9 = sext i32 %8 to i64
  %10 = getelementptr inbounds i32, ptr %7, i64 %9
  %11 = load i32, ptr %10, align 4, !tbaa !10
  ret i32 %11
}

; Function Attrs: inlinehint nounwind uwtable
define internal i32 @Vec_IntSize(ptr noundef %0) #2 {
  %2 = alloca ptr, align 8
  store ptr %0, ptr %2, align 8, !tbaa !23
  %3 = load ptr, ptr %2, align 8, !tbaa !23
  %4 = getelementptr inbounds nuw %struct.Vec_Int_t_, ptr %3, i32 0, i32 1
  %5 = load i32, ptr %4, align 4, !tbaa !37
  ret i32 %5
}

; Function Attrs: nounwind uwtable
define void @Lpk_FunCompareBoundSets(ptr noundef %0, ptr noundef %1, i32 noundef %2, i32 noundef %3, i32 noundef %4, ptr noundef %5) #0 {
  %7 = alloca ptr, align 8
  %8 = alloca ptr, align 8
  %9 = alloca i32, align 4
  %10 = alloca i32, align 4
  %11 = alloca i32, align 4
  %12 = alloca ptr, align 8
  %13 = alloca i32, align 4
  %14 = alloca i32, align 4
  %15 = alloca i32, align 4
  %16 = alloca i32, align 4
  %17 = alloca i32, align 4
  %18 = alloca i32, align 4
  %19 = alloca i32, align 4
  store ptr %0, ptr %7, align 8, !tbaa !3
  store ptr %1, ptr %8, align 8, !tbaa !23
  store i32 %2, ptr %9, align 4, !tbaa !10
  store i32 %3, ptr %10, align 4, !tbaa !10
  store i32 %4, ptr %11, align 4, !tbaa !10
  store ptr %5, ptr %12, align 8, !tbaa !45
  call void @llvm.lifetime.start.p0(i64 4, ptr %13) #8
  store i32 0, ptr %13, align 4, !tbaa !10
  call void @llvm.lifetime.start.p0(i64 4, ptr %14) #8
  call void @llvm.lifetime.start.p0(i64 4, ptr %15) #8
  call void @llvm.lifetime.start.p0(i64 4, ptr %16) #8
  call void @llvm.lifetime.start.p0(i64 4, ptr %17) #8
  call void @llvm.lifetime.start.p0(i64 4, ptr %18) #8
  call void @llvm.lifetime.start.p0(i64 4, ptr %19) #8
  %20 = load ptr, ptr %12, align 8, !tbaa !45
  call void @llvm.memset.p0.i64(ptr align 4 %20, i8 0, i64 40, i1 false)
  store i32 0, ptr %15, align 4, !tbaa !10
  br label %21

21:                                               ; preds = %161, %6
  %22 = load i32, ptr %15, align 4, !tbaa !10
  %23 = load ptr, ptr %8, align 8, !tbaa !23
  %24 = call i32 @Vec_IntSize(ptr noundef %23)
  %25 = icmp slt i32 %22, %24
  br i1 %25, label %26, label %30

26:                                               ; preds = %21
  %27 = load ptr, ptr %8, align 8, !tbaa !23
  %28 = load i32, ptr %15, align 4, !tbaa !10
  %29 = call i32 @Vec_IntEntry(ptr noundef %27, i32 noundef %28)
  store i32 %29, ptr %14, align 4, !tbaa !10
  br label %30

30:                                               ; preds = %26, %21
  %31 = phi i1 [ false, %21 ], [ true, %26 ]
  br i1 %31, label %32, label %164

32:                                               ; preds = %30
  %33 = load i32, ptr %14, align 4, !tbaa !10
  %34 = and i32 %33, 65535
  %35 = icmp eq i32 %34, 0
  br i1 %35, label %36, label %37

36:                                               ; preds = %32
  br label %161

37:                                               ; preds = %32
  %38 = load i32, ptr %14, align 4, !tbaa !10
  %39 = load i32, ptr %10, align 4, !tbaa !10
  %40 = and i32 %38, %39
  %41 = icmp eq i32 %40, 0
  br i1 %41, label %42, label %43

42:                                               ; preds = %37
  br label %161

43:                                               ; preds = %37
  %44 = load i32, ptr %14, align 4, !tbaa !10
  %45 = load i32, ptr %11, align 4, !tbaa !10
  %46 = and i32 %44, %45
  %47 = icmp ne i32 %46, 0
  br i1 %47, label %48, label %49

48:                                               ; preds = %43
  br label %161

49:                                               ; preds = %43
  %50 = load i32, ptr %13, align 4, !tbaa !10
  %51 = icmp ne i32 %50, 0
  br i1 %51, label %52, label %55

52:                                               ; preds = %49
  %53 = load i32, ptr %14, align 4, !tbaa !10
  %54 = and i32 %53, 65535
  call void @Lpk_PrintSetOne(i32 noundef %54)
  br label %55

55:                                               ; preds = %52, %49
  %56 = load i32, ptr %14, align 4, !tbaa !10
  %57 = and i32 %56, 65535
  %58 = call i32 @Kit_WordCountOnes(i32 noundef %57)
  store i32 %58, ptr %16, align 4, !tbaa !10
  %59 = load i32, ptr %16, align 4, !tbaa !10
  %60 = icmp eq i32 %59, 1
  br i1 %60, label %61, label %62

61:                                               ; preds = %55
  br label %161

62:                                               ; preds = %55
  %63 = load ptr, ptr %7, align 8, !tbaa !3
  %64 = getelementptr inbounds nuw %struct.Lpk_Fun_t_, ptr %63, i32 0, i32 1
  %65 = load i32, ptr %64, align 8
  %66 = lshr i32 %65, 7
  %67 = and i32 %66, 31
  %68 = load i32, ptr %16, align 4, !tbaa !10
  %69 = sub nsw i32 %67, %68
  %70 = add nsw i32 %69, 1
  store i32 %70, ptr %17, align 4, !tbaa !10
  %71 = load i32, ptr %17, align 4, !tbaa !10
  %72 = load ptr, ptr %7, align 8, !tbaa !3
  %73 = getelementptr inbounds nuw %struct.Lpk_Fun_t_, ptr %72, i32 0, i32 1
  %74 = load i32, ptr %73, align 8
  %75 = lshr i32 %74, 12
  %76 = and i32 %75, 15
  %77 = call i32 @Lpk_LutNumLuts(i32 noundef %71, i32 noundef %76)
  %78 = add nsw i32 1, %77
  store i32 %78, ptr %19, align 4, !tbaa !10
  %79 = load i32, ptr %14, align 4, !tbaa !10
  %80 = and i32 %79, 65535
  %81 = load ptr, ptr %7, align 8, !tbaa !3
  %82 = getelementptr inbounds nuw %struct.Lpk_Fun_t_, ptr %81, i32 0, i32 5
  %83 = getelementptr inbounds [16 x i32], ptr %82, i64 0, i64 0
  %84 = call i32 @Lpk_SuppDelay(i32 noundef %80, ptr noundef %83)
  %85 = add nsw i32 1, %84
  store i32 %85, ptr %18, align 4, !tbaa !10
  %86 = load i32, ptr %13, align 4, !tbaa !10
  %87 = icmp ne i32 %86, 0
  br i1 %87, label %88, label %100

88:                                               ; preds = %62
  %89 = load i32, ptr %19, align 4, !tbaa !10
  %90 = load ptr, ptr %7, align 8, !tbaa !3
  %91 = getelementptr inbounds nuw %struct.Lpk_Fun_t_, ptr %90, i32 0, i32 1
  %92 = load i32, ptr %91, align 8
  %93 = lshr i32 %92, 16
  %94 = and i32 %93, 16383
  %95 = load i32, ptr %18, align 4, !tbaa !10
  %96 = load ptr, ptr %7, align 8, !tbaa !3
  %97 = getelementptr inbounds nuw %struct.Lpk_Fun_t_, ptr %96, i32 0, i32 4
  %98 = load i32, ptr %97, align 8, !tbaa !47
  %99 = call i32 (ptr, ...) @printf(ptr noundef @.str, i32 noundef %89, i32 noundef %94, i32 noundef %95, i32 noundef %98)
  br label %100

100:                                              ; preds = %88, %62
  %101 = load i32, ptr %19, align 4, !tbaa !10
  %102 = load ptr, ptr %7, align 8, !tbaa !3
  %103 = getelementptr inbounds nuw %struct.Lpk_Fun_t_, ptr %102, i32 0, i32 1
  %104 = load i32, ptr %103, align 8
  %105 = lshr i32 %104, 16
  %106 = and i32 %105, 16383
  %107 = icmp sgt i32 %101, %106
  br i1 %107, label %114, label %108

108:                                              ; preds = %100
  %109 = load i32, ptr %18, align 4, !tbaa !10
  %110 = load ptr, ptr %7, align 8, !tbaa !3
  %111 = getelementptr inbounds nuw %struct.Lpk_Fun_t_, ptr %110, i32 0, i32 4
  %112 = load i32, ptr %111, align 8, !tbaa !47
  %113 = icmp sgt i32 %109, %112
  br i1 %113, label %114, label %115

114:                                              ; preds = %108, %100
  br label %161

115:                                              ; preds = %108
  %116 = load ptr, ptr %12, align 8, !tbaa !45
  %117 = getelementptr inbounds nuw %struct.Lpk_Res_t_, ptr %116, i32 0, i32 1
  %118 = load i32, ptr %117, align 4, !tbaa !48
  %119 = icmp eq i32 %118, 0
  br i1 %119, label %138, label %120

120:                                              ; preds = %115
  %121 = load ptr, ptr %12, align 8, !tbaa !45
  %122 = getelementptr inbounds nuw %struct.Lpk_Res_t_, ptr %121, i32 0, i32 5
  %123 = load i32, ptr %122, align 4, !tbaa !50
  %124 = load i32, ptr %17, align 4, !tbaa !10
  %125 = icmp sgt i32 %123, %124
  br i1 %125, label %138, label %126

126:                                              ; preds = %120
  %127 = load ptr, ptr %12, align 8, !tbaa !45
  %128 = getelementptr inbounds nuw %struct.Lpk_Res_t_, ptr %127, i32 0, i32 5
  %129 = load i32, ptr %128, align 4, !tbaa !50
  %130 = load i32, ptr %17, align 4, !tbaa !10
  %131 = icmp eq i32 %129, %130
  br i1 %131, label %132, label %160

132:                                              ; preds = %126
  %133 = load ptr, ptr %12, align 8, !tbaa !45
  %134 = getelementptr inbounds nuw %struct.Lpk_Res_t_, ptr %133, i32 0, i32 6
  %135 = load i32, ptr %134, align 4, !tbaa !51
  %136 = load i32, ptr %18, align 4, !tbaa !10
  %137 = icmp sgt i32 %135, %136
  br i1 %137, label %138, label %160

138:                                              ; preds = %132, %120, %115
  %139 = load i32, ptr %16, align 4, !tbaa !10
  %140 = load ptr, ptr %12, align 8, !tbaa !45
  %141 = getelementptr inbounds nuw %struct.Lpk_Res_t_, ptr %140, i32 0, i32 0
  store i32 %139, ptr %141, align 4, !tbaa !52
  %142 = load i32, ptr %14, align 4, !tbaa !10
  %143 = and i32 %142, 65535
  %144 = load ptr, ptr %12, align 8, !tbaa !45
  %145 = getelementptr inbounds nuw %struct.Lpk_Res_t_, ptr %144, i32 0, i32 1
  store i32 %143, ptr %145, align 4, !tbaa !48
  %146 = load i32, ptr %16, align 4, !tbaa !10
  %147 = load i32, ptr %9, align 4, !tbaa !10
  %148 = add nsw i32 %146, %147
  %149 = load ptr, ptr %12, align 8, !tbaa !45
  %150 = getelementptr inbounds nuw %struct.Lpk_Res_t_, ptr %149, i32 0, i32 4
  store i32 %148, ptr %150, align 4, !tbaa !53
  %151 = load i32, ptr %17, align 4, !tbaa !10
  %152 = load ptr, ptr %12, align 8, !tbaa !45
  %153 = getelementptr inbounds nuw %struct.Lpk_Res_t_, ptr %152, i32 0, i32 5
  store i32 %151, ptr %153, align 4, !tbaa !50
  %154 = load i32, ptr %18, align 4, !tbaa !10
  %155 = load ptr, ptr %12, align 8, !tbaa !45
  %156 = getelementptr inbounds nuw %struct.Lpk_Res_t_, ptr %155, i32 0, i32 6
  store i32 %154, ptr %156, align 4, !tbaa !51
  %157 = load i32, ptr %19, align 4, !tbaa !10
  %158 = load ptr, ptr %12, align 8, !tbaa !45
  %159 = getelementptr inbounds nuw %struct.Lpk_Res_t_, ptr %158, i32 0, i32 7
  store i32 %157, ptr %159, align 4, !tbaa !54
  br label %160

160:                                              ; preds = %138, %132, %126
  br label %161

161:                                              ; preds = %160, %114, %61, %48, %42, %36
  %162 = load i32, ptr %15, align 4, !tbaa !10
  %163 = add nsw i32 %162, 1
  store i32 %163, ptr %15, align 4, !tbaa !10
  br label %21, !llvm.loop !55

164:                                              ; preds = %30
  %165 = load i32, ptr %13, align 4, !tbaa !10
  %166 = icmp ne i32 %165, 0
  br i1 %166, label %167, label %182

167:                                              ; preds = %164
  %168 = load ptr, ptr %12, align 8, !tbaa !45
  %169 = getelementptr inbounds nuw %struct.Lpk_Res_t_, ptr %168, i32 0, i32 1
  %170 = load i32, ptr %169, align 4, !tbaa !48
  %171 = icmp ne i32 %170, 0
  br i1 %171, label %172, label %178

172:                                              ; preds = %167
  %173 = call i32 (ptr, ...) @printf(ptr noundef @.str.1)
  %174 = load ptr, ptr %12, align 8, !tbaa !45
  %175 = getelementptr inbounds nuw %struct.Lpk_Res_t_, ptr %174, i32 0, i32 1
  %176 = load i32, ptr %175, align 4, !tbaa !48
  call void @Lpk_PrintSetOne(i32 noundef %176)
  %177 = call i32 (ptr, ...) @printf(ptr noundef @.str.2)
  br label %180

178:                                              ; preds = %167
  %179 = call i32 (ptr, ...) @printf(ptr noundef @.str.3)
  br label %180

180:                                              ; preds = %178, %172
  %181 = call i32 (ptr, ...) @printf(ptr noundef @.str.2)
  br label %182

182:                                              ; preds = %180, %164
  %183 = load ptr, ptr %12, align 8, !tbaa !45
  %184 = getelementptr inbounds nuw %struct.Lpk_Res_t_, ptr %183, i32 0, i32 1
  %185 = load i32, ptr %184, align 4, !tbaa !48
  %186 = icmp ne i32 %185, 0
  br i1 %186, label %187, label %188

187:                                              ; preds = %182
  br label %188

188:                                              ; preds = %187, %182
  call void @llvm.lifetime.end.p0(i64 4, ptr %19) #8
  call void @llvm.lifetime.end.p0(i64 4, ptr %18) #8
  call void @llvm.lifetime.end.p0(i64 4, ptr %17) #8
  call void @llvm.lifetime.end.p0(i64 4, ptr %16) #8
  call void @llvm.lifetime.end.p0(i64 4, ptr %15) #8
  call void @llvm.lifetime.end.p0(i64 4, ptr %14) #8
  call void @llvm.lifetime.end.p0(i64 4, ptr %13) #8
  ret void
}