; Function Attrs: nounwind uwtable
define void @Lpk_FunCompareBoundSets(ptr noundef %0, ptr noundef readonly captures(none) %1, i32 noundef %2, i32 noundef %3, i32 noundef %4, ptr noundef captures(none) initializes((0, 40)) %5) local_unnamed_addr #0 {
  tail call void @llvm.memset.p0.i64(ptr noundef nonnull align 4 dereferenceable(40) %5, i8 0, i64 40, i1 false)
  %7 = getelementptr i8, ptr %1, i64 4
  %.val70 = load i32, ptr %7, align 4, !tbaa !27
  %8 = icmp sgt i32 %.val70, 0
  br i1 %8, label %.lr.ph, label %.critedge

.lr.ph:                                           ; preds = %6
  %9 = getelementptr i8, ptr %1, i64 8
  %10 = getelementptr inbounds nuw i8, ptr %0, i64 8
  %11 = getelementptr inbounds nuw i8, ptr %0, i64 148
  %12 = getelementptr inbounds nuw i8, ptr %0, i64 144
  %13 = getelementptr inbounds nuw i8, ptr %5, i64 4
  %14 = getelementptr inbounds nuw i8, ptr %5, i64 20
  %15 = getelementptr inbounds nuw i8, ptr %5, i64 24
  %16 = getelementptr inbounds nuw i8, ptr %5, i64 16
  %17 = getelementptr inbounds nuw i8, ptr %5, i64 28
  br label %18

18:                                               ; preds = %.lr.ph, %78
  %indvars.iv = phi i64 [ 0, %.lr.ph ], [ %indvars.iv.next, %78 ]
  %.val63 = load ptr, ptr %9, align 8, !tbaa !30
  %19 = getelementptr inbounds nuw i32, ptr %.val63, i64 %indvars.iv
  %20 = load i32, ptr %19, align 4, !tbaa !12
  %21 = and i32 %20, 65535
  %22 = icmp ne i32 %21, 0
  %23 = and i32 %20, %3
  %24 = icmp ne i32 %23, 0
  %or.cond.not69 = and i1 %22, %24
  %25 = and i32 %20, %4
  %.not = icmp eq i32 %25, 0
  %or.cond62 = and i1 %.not, %or.cond.not69
  br i1 %or.cond62, label %26, label %78

26:                                               ; preds = %18
  %27 = and i32 %20, 21845
  %28 = lshr i32 %20, 1
  %29 = and i32 %28, 21845
  %30 = add nuw nsw i32 %29, %27
  %31 = and i32 %30, 13107
  %32 = lshr i32 %30, 2
  %33 = and i32 %32, 13107
  %34 = add nuw nsw i32 %33, %31
  %35 = and i32 %34, 1799
  %36 = lshr i32 %34, 4
  %37 = and i32 %36, 1799
  %38 = add nuw nsw i32 %37, %35
  %39 = and i32 %38, 15
  %40 = lshr i32 %38, 8
  %41 = add nuw nsw i32 %40, %39
  %42 = icmp eq i32 %41, 1
  br i1 %42, label %78, label %43

43:                                               ; preds = %26
  %44 = load i32, ptr %10, align 8
  %45 = lshr i32 %44, 7
  %46 = and i32 %45, 31
  %47 = sub nsw i32 %46, %41
  %48 = add nsw i32 %47, 1
  %49 = lshr i32 %44, 12
  %.lhs.trunc = trunc nsw i32 %47 to i8
  %50 = trunc i32 %49 to i8
  %51 = and i8 %50, 15
  %.rhs.trunc = add nsw i8 %51, -1
  %52 = sdiv i8 %.lhs.trunc, %.rhs.trunc
  %.sext = sext i8 %52 to i32
  %53 = srem i8 %.lhs.trunc, %.rhs.trunc
  %54 = icmp sgt i8 %53, 0
  %55 = zext i1 %54 to i32
  %56 = add nsw i32 %55, %.sext
  %57 = add nsw i32 %56, 1
  %58 = tail call i32 @Lpk_SuppDelay(i32 noundef %21, ptr noundef nonnull %11) #10
  %59 = add nsw i32 %58, 1
  %60 = load i32, ptr %10, align 8
  %61 = lshr i32 %60, 16
  %62 = and i32 %61, 16383
  %.not59 = icmp slt i32 %56, %62
  br i1 %.not59, label %63, label %78

63:                                               ; preds = %43
  %64 = load i32, ptr %12, align 8, !tbaa !38
  %.not60 = icmp slt i32 %58, %64
  br i1 %.not60, label %65, label %78

65:                                               ; preds = %63
  %66 = load i32, ptr %13, align 4, !tbaa !39
  %67 = icmp eq i32 %66, 0
  br i1 %67, label %76, label %68

68:                                               ; preds = %65
  %69 = load i32, ptr %14, align 4, !tbaa !41
  %70 = icmp sgt i32 %69, %48
  br i1 %70, label %76, label %71

71:                                               ; preds = %68
  %72 = icmp eq i32 %69, %48
  br i1 %72, label %73, label %78

73:                                               ; preds = %71
  %74 = load i32, ptr %15, align 4, !tbaa !42
  %75 = icmp sgt i32 %74, %59
  br i1 %75, label %76, label %78

76:                                               ; preds = %73, %68, %65
  store i32 %41, ptr %5, align 4, !tbaa !43
  store i32 %21, ptr %13, align 4, !tbaa !39
  %77 = add nsw i32 %41, %2
  store i32 %77, ptr %16, align 4, !tbaa !44
  store i32 %48, ptr %14, align 4, !tbaa !41
  store i32 %59, ptr %15, align 4, !tbaa !42
  store i32 %57, ptr %17, align 4, !tbaa !45
  br label %78

78:                                               ; preds = %71, %73, %76, %43, %63, %26, %18
  %indvars.iv.next = add nuw nsw i64 %indvars.iv, 1
  %.val = load i32, ptr %7, align 4, !tbaa !27
  %79 = sext i32 %.val to i64
  %80 = icmp slt i64 %indvars.iv.next, %79
  br i1 %80, label %18, label %.critedge, !llvm.loop !46

.critedge:                                        ; preds = %78, %6
  ret void
}